target datalayout = "e-m:e-p270:32:32-p271:32:32-p272:64:64-i64:64-i128:128-f80:128-n8:16:32:64-S128"
target triple = "x86_64-pc-linux-gnu"

%struct.APK_DATA_st = type { ptr, i64, ptr, i32, i32, i32, i32, i32 }

@.str.18 = private unnamed_addr constant [33 x i8] c"../openssl/test/evp_extra_test.c\00", align 1
@.str.206 = private unnamed_addr constant [47 x i8] c"pkey = d2i_AutoPrivateKey(NULL, &p, input_len)\00", align 1
@.str.207 = private unnamed_addr constant [2 x i8] c"p\00", align 1
@.str.208 = private unnamed_addr constant [18 x i8] c"input + input_len\00", align 1
@.str.209 = private unnamed_addr constant [22 x i8] c"EVP_PKEY_get_id(pkey)\00", align 1
@.str.210 = private unnamed_addr constant [12 x i8] c"expected_id\00", align 1

; Function Attrs: nounwind uwtable
define internal i32 @test_d2i_AutoPrivateKey(i32 noundef %0) #0 {
  %2 = alloca i32, align 4
  %3 = alloca i32, align 4
  %4 = alloca ptr, align 8
  %5 = alloca ptr, align 8
  %6 = alloca ptr, align 8
  %7 = alloca ptr, align 8
  %8 = alloca i64, align 8
  %9 = alloca i32, align 4
  store i32 %0, ptr %2, align 4, !tbaa !9
  call void @llvm.lifetime.start.p0(i64 4, ptr %3) #8
  store i32 0, ptr %3, align 4, !tbaa !9
  call void @llvm.lifetime.start.p0(i64 8, ptr %4) #8
  call void @llvm.lifetime.start.p0(i64 8, ptr %5) #8
  store ptr null, ptr %5, align 8, !tbaa !21
  call void @llvm.lifetime.start.p0(i64 8, ptr %6) #8
  %10 = load i32, ptr %2, align 4, !tbaa !9
  %11 = sext i32 %10 to i64
  %12 = getelementptr inbounds [3 x %struct.APK_DATA_st], ptr @keydata, i64 0, i64 %11
  store ptr %12, ptr %6, align 8, !tbaa !43
  call void @llvm.lifetime.start.p0(i64 8, ptr %7) #8
  %13 = load ptr, ptr %6, align 8, !tbaa !43
  %14 = getelementptr inbounds nuw %struct.APK_DATA_st, ptr %13, i32 0, i32 0
  %15 = load ptr, ptr %14, align 8, !tbaa !45
  store ptr %15, ptr %7, align 8, !tbaa !4
  call void @llvm.lifetime.start.p0(i64 8, ptr %8) #8
  %16 = load ptr, ptr %6, align 8, !tbaa !43
  %17 = getelementptr inbounds nuw %struct.APK_DATA_st, ptr %16, i32 0, i32 1
  %18 = load i64, ptr %17, align 8, !tbaa !47
  store i64 %18, ptr %8, align 8, !tbaa !23
  call void @llvm.lifetime.start.p0(i64 4, ptr %9) #8
  %19 = load ptr, ptr %6, align 8, !tbaa !43
  %20 = getelementptr inbounds nuw %struct.APK_DATA_st, ptr %19, i32 0, i32 3
  %21 = load i32, ptr %20, align 8, !tbaa !48
  store i32 %21, ptr %9, align 4, !tbaa !9
  %22 = load ptr, ptr %7, align 8, !tbaa !4
  store ptr %22, ptr %4, align 8, !tbaa !4
  %23 = load i64, ptr %8, align 8, !tbaa !23
  %24 = call ptr @d2i_AutoPrivateKey(ptr noundef null, ptr noundef %4, i64 noundef %23)
  store ptr %24, ptr %5, align 8, !tbaa !21
  %25 = call i32 @test_ptr(ptr noundef @.str.18, i32 noundef 2060, ptr noundef @.str.206, ptr noundef %24)
  %26 = icmp ne i32 %25, 0
  br i1 %26, label %27, label %40

27:                                               ; preds = %1
  %28 = load ptr, ptr %4, align 8, !tbaa !4
  %29 = load ptr, ptr %7, align 8, !tbaa !4
  %30 = load i64, ptr %8, align 8, !tbaa !23
  %31 = getelementptr inbounds nuw i8, ptr %29, i64 %30
  %32 = call i32 @test_ptr_eq(ptr noundef @.str.18, i32 noundef 2061, ptr noundef @.str.207, ptr noundef @.str.208, ptr noundef %28, ptr noundef %31)
  %33 = icmp ne i32 %32, 0
  br i1 %33, label %34, label %40

34:                                               ; preds = %27
  %35 = load ptr, ptr %5, align 8, !tbaa !21
  %36 = call i32 @EVP_PKEY_get_id(ptr noundef %35)
  %37 = load i32, ptr %9, align 4, !tbaa !9
  %38 = call i32 @test_int_eq(ptr noundef @.str.18, i32 noundef 2062, ptr noundef @.str.209, ptr noundef @.str.210, i32 noundef %36, i32 noundef %37)
  %39 = icmp ne i32 %38, 0
  br i1 %39, label %41, label %40

40:                                               ; preds = %34, %27, %1
  br label %42

41:                                               ; preds = %34
  store i32 1, ptr %3, align 4, !tbaa !9
  br label %42

42:                                               ; preds = %41, %40
  %43 = load ptr, ptr %5, align 8, !tbaa !21
  call void @EVP_PKEY_free(ptr noundef %43)
  %44 = load i32, ptr %3, align 4, !tbaa !9
  call void @llvm.lifetime.end.p0(i64 4, ptr %9) #8
  call void @llvm.lifetime.end.p0(i64 8, ptr %8) #8
  call void @llvm.lifetime.end.p0(i64 8, ptr %7) #8
  call void @llvm.lifetime.end.p0(i64 8, ptr %6) #8
  call void @llvm.lifetime.end.p0(i64 8, ptr %5) #8
  call void @llvm.lifetime.end.p0(i64 8, ptr %4) #8
  call void @llvm.lifetime.end.p0(i64 4, ptr %3) #8
  ret i32 %44
}