; Function Attrs: nounwind uwtable
define internal range(i32 0, 2) i32 @test_d2i_AutoPrivateKey(i32 noundef %0) #1 {
  %2 = alloca ptr, align 8
  call void @llvm.lifetime.start.p0(i64 8, ptr nonnull %2) #9
  %3 = sext i32 %0 to i64
  %4 = getelementptr inbounds [3 x %struct.APK_DATA_st], ptr @keydata, i64 0, i64 %3
  %5 = load ptr, ptr %4, align 16, !tbaa !27
  %6 = getelementptr inbounds nuw i8, ptr %4, i64 8
  %7 = load i64, ptr %6, align 8, !tbaa !29
  %8 = getelementptr inbounds nuw i8, ptr %4, i64 24
  %9 = load i32, ptr %8, align 8, !tbaa !30
  store ptr %5, ptr %2, align 8, !tbaa !19
  %10 = call ptr @d2i_AutoPrivateKey(ptr noundef null, ptr noundef nonnull %2, i64 noundef %7) #9
  %11 = call i32 @test_ptr(ptr noundef nonnull @.str.18, i32 noundef 2060, ptr noundef nonnull @.str.206, ptr noundef %10) #9
  %.not = icmp eq i32 %11, 0
  br i1 %.not, label %19, label %12

12:                                               ; preds = %1
  %13 = load ptr, ptr %2, align 8, !tbaa !19
  %14 = getelementptr inbounds nuw i8, ptr %5, i64 %7
  %15 = call i32 @test_ptr_eq(ptr noundef nonnull @.str.18, i32 noundef 2061, ptr noundef nonnull @.str.207, ptr noundef nonnull @.str.208, ptr noundef %13, ptr noundef %14) #9
  %.not11 = icmp eq i32 %15, 0
  br i1 %.not11, label %19, label %16

16:                                               ; preds = %12
  %17 = call i32 @EVP_PKEY_get_id(ptr noundef %10) #9
  %18 = call i32 @test_int_eq(ptr noundef nonnull @.str.18, i32 noundef 2062, ptr noundef nonnull @.str.209, ptr noundef nonnull @.str.210, i32 noundef %17, i32 noundef %9) #9
  %.not12 = icmp ne i32 %18, 0
  %spec.select = zext i1 %.not12 to i32
  br label %19

19:                                               ; preds = %16, %1, %12
  %.0 = phi i32 [ 0, %12 ], [ 0, %1 ], [ %spec.select, %16 ]
  call void @EVP_PKEY_free(ptr noundef %10) #9
  call void @llvm.lifetime.end.p0(i64 8, ptr nonnull %2) #9
  ret i32 %.0
}